target datalayout = "e-m:e-p270:32:32-p271:32:32-p272:64:64-i64:64-i128:128-f80:128-n8:16:32:64-S128"
target triple = "x86_64-pc-linux-gnu"

%struct.Vec_Int_t_ = type { i32, i32, ptr }
%struct.Vec_Wec_t_ = type { i32, i32, ptr }

@.str.12 = private unnamed_addr constant [28 x i8] c"Detected constant-1 cover.\0A\00", align 1
@stdout = external global ptr, align 8

; Function Attrs: inlinehint nounwind uwtable
define internal i32 @Vec_IntSize(ptr noundef %0) #3 {
  %2 = alloca ptr, align 8
  store ptr %0, ptr %2, align 8, !tbaa !26
  %3 = load ptr, ptr %2, align 8, !tbaa !26
  %4 = getelementptr inbounds nuw %struct.Vec_Int_t_, ptr %3, i32 0, i32 1
  %5 = load i32, ptr %4, align 4, !tbaa !27
  ret i32 %5
}

; Function Attrs: inlinehint nounwind uwtable
define internal ptr @Vec_WecEntry(ptr noundef %0, i32 noundef %1) #3 {
  %3 = alloca ptr, align 8
  %4 = alloca i32, align 4
  store ptr %0, ptr %3, align 8, !tbaa !80
  store i32 %1, ptr %4, align 4, !tbaa !3
  %5 = load ptr, ptr %3, align 8, !tbaa !80
  %6 = getelementptr inbounds nuw %struct.Vec_Wec_t_, ptr %5, i32 0, i32 2
  %7 = load ptr, ptr %6, align 8, !tbaa !85
  %8 = load i32, ptr %4, align 4, !tbaa !3
  %9 = sext i32 %8 to i64
  %10 = getelementptr inbounds %struct.Vec_Int_t_, ptr %7, i64 %9
  ret ptr %10
}

; Function Attrs: inlinehint nounwind uwtable
define internal i32 @Vec_WecSize(ptr noundef %0) #3 {
  %2 = alloca ptr, align 8
  store ptr %0, ptr %2, align 8, !tbaa !80
  %3 = load ptr, ptr %2, align 8, !tbaa !80
  %4 = getelementptr inbounds nuw %struct.Vec_Wec_t_, ptr %3, i32 0, i32 1
  %5 = load i32, ptr %4, align 4, !tbaa !83
  ret i32 %5
}

; Function Attrs: nounwind uwtable
define i32 @Mop_ManMergeDist1All(ptr noundef %0, ptr noundef %1, ptr noundef %2, i32 noundef %3) #0 {
  %5 = alloca i32, align 4
  %6 = alloca ptr, align 8
  %7 = alloca ptr, align 8
  %8 = alloca ptr, align 8
  %9 = alloca i32, align 4
  %10 = alloca ptr, align 8
  %11 = alloca i32, align 4
  %12 = alloca i32, align 4
  %13 = alloca i32, align 4
  %14 = alloca i32, align 4
  %15 = alloca i32, align 4
  store ptr %0, ptr %6, align 8, !tbaa !7
  store ptr %1, ptr %7, align 8, !tbaa !80
  store ptr %2, ptr %8, align 8, !tbaa !26
  store i32 %3, ptr %9, align 4, !tbaa !3
  call void @llvm.lifetime.start.p0(i64 8, ptr %10) #13
  call void @llvm.lifetime.start.p0(i64 4, ptr %11) #13
  call void @llvm.lifetime.start.p0(i64 4, ptr %12) #13
  call void @llvm.lifetime.start.p0(i64 4, ptr %13) #13
  call void @llvm.lifetime.start.p0(i64 4, ptr %14) #13
  store i32 0, ptr %14, align 4, !tbaa !3
  %16 = load ptr, ptr %7, align 8, !tbaa !80
  %17 = call i32 @Vec_WecSize(ptr noundef %16)
  %18 = sub nsw i32 %17, 1
  store i32 %18, ptr %11, align 4, !tbaa !3
  br label %19

19:                                               ; preds = %58, %4
  %20 = load i32, ptr %11, align 4, !tbaa !3
  %21 = icmp sge i32 %20, 0
  br i1 %21, label %22, label %26

22:                                               ; preds = %19
  %23 = load ptr, ptr %7, align 8, !tbaa !80
  %24 = load i32, ptr %11, align 4, !tbaa !3
  %25 = call ptr @Vec_WecEntry(ptr noundef %23, i32 noundef %24)
  store ptr %25, ptr %10, align 8, !tbaa !26
  br label %26

26:                                               ; preds = %22, %19
  %27 = phi i1 [ false, %19 ], [ true, %22 ]
  br i1 %27, label %28, label %61

28:                                               ; preds = %26
  %29 = load ptr, ptr %10, align 8, !tbaa !26
  %30 = call i32 @Vec_IntSize(ptr noundef %29)
  %31 = icmp eq i32 %30, 0
  br i1 %31, label %32, label %33

32:                                               ; preds = %28
  br label %58

33:                                               ; preds = %28
  %34 = load i32, ptr %11, align 4, !tbaa !3
  %35 = icmp eq i32 %34, 0
  br i1 %35, label %36, label %40

36:                                               ; preds = %33
  %37 = call i32 (ptr, ...) @printf(ptr noundef @.str.12)
  %38 = load ptr, ptr @stdout, align 8, !tbaa !34
  %39 = call i32 @fflush(ptr noundef %38)
  store i32 -1, ptr %5, align 4
  store i32 1, ptr %15, align 4
  br label %63

40:                                               ; preds = %33
  %41 = load ptr, ptr %6, align 8, !tbaa !7
  %42 = load ptr, ptr %10, align 8, !tbaa !26
  %43 = call i32 @Mop_ManRemoveIdentical(ptr noundef %41, ptr noundef %42)
  store i32 %43, ptr %12, align 4, !tbaa !3
  %44 = load ptr, ptr %6, align 8, !tbaa !7
  %45 = load ptr, ptr %10, align 8, !tbaa !26
  %46 = load ptr, ptr %7, align 8, !tbaa !80
  %47 = load i32, ptr %11, align 4, !tbaa !3
  %48 = sub nsw i32 %47, 1
  %49 = call ptr @Vec_WecEntry(ptr noundef %46, i32 noundef %48)
  %50 = load ptr, ptr %8, align 8, !tbaa !26
  %51 = load i32, ptr %9, align 4, !tbaa !3
  %52 = call i32 @Mop_ManMergeDist1Pairs(ptr noundef %44, ptr noundef %45, ptr noundef %49, ptr noundef %50, i32 noundef %51)
  store i32 %52, ptr %13, align 4, !tbaa !3
  %53 = load i32, ptr %12, align 4, !tbaa !3
  %54 = load i32, ptr %13, align 4, !tbaa !3
  %55 = add nsw i32 %53, %54
  %56 = load i32, ptr %14, align 4, !tbaa !3
  %57 = add nsw i32 %56, %55
  store i32 %57, ptr %14, align 4, !tbaa !3
  br label %58

58:                                               ; preds = %40, %32
  %59 = load i32, ptr %11, align 4, !tbaa !3
  %60 = add nsw i32 %59, -1
  store i32 %60, ptr %11, align 4, !tbaa !3
  br label %19, !llvm.loop !82

61:                                               ; preds = %26
  %62 = load i32, ptr %14, align 4, !tbaa !3
  store i32 %62, ptr %5, align 4
  store i32 1, ptr %15, align 4
  br label %63

63:                                               ; preds = %61, %36
  call void @llvm.lifetime.end.p0(i64 4, ptr %14) #13
  call void @llvm.lifetime.end.p0(i64 4, ptr %13) #13
  call void @llvm.lifetime.end.p0(i64 4, ptr %12) #13
  call void @llvm.lifetime.end.p0(i64 4, ptr %11) #13
  call void @llvm.lifetime.end.p0(i64 8, ptr %10) #13
  %64 = load i32, ptr %5, align 4
  ret i32 %64
}