; Function Attrs: nounwind uwtable
define i32 @Mop_ManMergeDist1All(ptr noundef readonly captures(none) %0, ptr noundef readonly captures(none) %1, ptr noundef readonly captures(none) %2, i32 noundef %3) local_unnamed_addr #5 {
  %5 = getelementptr i8, ptr %1, i64 4
  %.val21 = load i32, ptr %5, align 4, !tbaa !77
  %6 = icmp sgt i32 %.val21, 0
  br i1 %6, label %.lr.ph, label %.critedge

.lr.ph:                                           ; preds = %4
  %7 = getelementptr i8, ptr %1, i64 8
  %8 = zext nneg i32 %.val21 to i64
  br label %9

9:                                                ; preds = %.lr.ph, %25
  %indvars.iv = phi i64 [ %8, %.lr.ph ], [ %indvars.iv.next, %25 ]
  %.027 = phi i32 [ 0, %.lr.ph ], [ %.1, %25 ]
  %indvars.iv.next = add nsw i64 %indvars.iv, -1
  %.val22 = load ptr, ptr %7, align 8, !tbaa !79
  %10 = getelementptr inbounds nuw %struct.Vec_Int_t_, ptr %.val22, i64 %indvars.iv.next
  %11 = getelementptr i8, ptr %10, i64 4
  %.val = load i32, ptr %11, align 4, !tbaa !21
  %12 = icmp eq i32 %.val, 0
  br i1 %12, label %25, label %13

13:                                               ; preds = %9
  %14 = icmp eq i64 %indvars.iv.next, 0
  br i1 %14, label %15, label %18

15:                                               ; preds = %13
  %puts = tail call i32 @puts(ptr nonnull dereferenceable(1) @str.1)
  %16 = load ptr, ptr @stdout, align 8, !tbaa !29
  %17 = tail call i32 @fflush(ptr noundef %16)
  br label %.critedge

18:                                               ; preds = %13
  %19 = tail call i32 @Mop_ManRemoveIdentical(ptr noundef %0, ptr noundef nonnull %10)
  %.val23 = load ptr, ptr %7, align 8, !tbaa !79
  %20 = getelementptr %struct.Vec_Int_t_, ptr %.val23, i64 %indvars.iv
  %21 = getelementptr i8, ptr %20, i64 -32
  %22 = tail call i32 @Mop_ManMergeDist1Pairs(ptr noundef %0, ptr noundef nonnull %10, ptr noundef %21, ptr noundef %2, i32 noundef %3)
  %23 = add i32 %19, %.027
  %24 = add i32 %23, %22
  br label %25

25:                                               ; preds = %9, %18
  %.1 = phi i32 [ %.027, %9 ], [ %24, %18 ]
  %26 = icmp samesign ugt i64 %indvars.iv, 1
  br i1 %26, label %9, label %.critedge, !llvm.loop !80

.critedge:                                        ; preds = %25, %4, %15
  %.019 = phi i32 [ -1, %15 ], [ 0, %4 ], [ %.1, %25 ]
  ret i32 %.019
}